(dp0
S'HEADER'
p1
S'This is a GPI Network File'
p2
sS'GPI_VERSION'
p3
S'0.2'
p4
sS'PLATFORM'
p5
(dp6
S'PYTHON_VERSION'
p7
S'2.7.6'
p8
sS'PYTHON'
p9
S'CPython'
p10
sS'TOTAL_PHYMEM'
p11
L8367030272L
sS'NUM_CPUS'
p12
I4
sS'HOSTNAME'
p13
S'ubuntu'
p14
sg5
S'Linux-3.8.0-29-generic-x86_64-with-debian-wheezy-sid'
p15
sS'TOTAL_PHYMEM_STR'
p16
S'7.79 GB'
p17
sS'OS'
p18
S'Linux'
p19
ssS'DATETIME'
p20
S'Thu Apr 10 12:34:23 2014'
p21
sS'NETWORK_VERSION'
p22
S'2'
p23
sS'layouts'
p24
(lp25
sS'TOTAL_PMEM'
p26
S'576'
p27
sS'nodes'
p28
(dp29
S'macroNodes'
p30
(lp31
(dp32
S'collapse'
p33
I01
sS'sink_settings'
p34
(dp35
S'widget_settings'
p36
(dp37
S'parms'
p38
(lp39
sS'label'
p40
S''
p41
ssS'avgwalltime'
p42
S'0.000407934188843'
p43
sS'name'
p44
S'__GPIMacroNode__'
p45
sS'pos'
p46
(lp47
F0.0
aF0.0
asS'id'
p48
I83439248
sS'stdwalltime'
p49
S'0.0'
p50
sS'ports'
p51
(lp52
(dp53
S'connections'
p54
(lp55
(dp56
S'dest'
p57
(dp58
S'portName'
p59
S'in1'
p60
sS'portNum'
p61
I0
sS'portID'
p62
I86359848
sS'nodeID'
p63
I83439248
ssS'src'
p64
(dp65
g59
S'out'
p66
sg61
I0
sg62
I83303776
sg63
I82531752
ssasS'portnum'
p67
I0
sS'porttitle'
p68
g60
sS'widgetTitle'
p69
NsS'porttype'
p70
I65540
sS'obligation'
p71
I200
sg48
I86359848
sa(dp72
g54
(lp73
sg67
I1
sg68
S'in2'
p74
sg69
Nsg70
I65540
sg71
I200
sg48
I86376680
sa(dp75
g54
(lp76
sg67
I2
sg68
S'in3'
p77
sg69
Nsg70
I65540
sg71
I200
sg48
I86376984
sa(dp78
g54
(lp79
sg67
I3
sg68
S'in4'
p80
sg69
Nsg70
I65540
sg71
I200
sg48
I86377288
sa(dp81
g54
(lp82
sg67
I4
sg68
S'in5'
p83
sg69
Nsg70
I65540
sg71
I200
sg48
I86377592
sa(dp84
g54
(lp85
sg67
I5
sg68
S'in6'
p86
sg69
Nsg70
I65540
sg71
I200
sg48
I86377896
sa(dp87
g54
(lp88
sg67
I6
sg68
S'in7'
p89
sg69
Nsg70
I65540
sg71
I200
sg48
I86378200
sa(dp90
g54
(lp91
sg67
I7
sg68
S'in8'
p92
sg69
Nsg70
I65540
sg71
I200
sg48
I86378504
sa(dp93
g54
(lp94
sg67
I8
sg68
S'in9'
p95
sg69
Nsg70
I65540
sg71
I200
sg48
I86378808
sa(dp96
g54
(lp97
sg67
I9
sg68
S'in10'
p98
sg69
Nsg70
I65540
sg71
I200
sg48
I86379112
sa(dp99
g54
(lp100
sg67
I10
sg68
S'in11'
p101
sg69
Nsg70
I65540
sg71
I200
sg48
I86379416
sa(dp102
g54
(lp103
sg67
I11
sg68
S'in12'
p104
sg69
Nsg70
I65540
sg71
I200
sg48
I86379720
sa(dp105
g54
(lp106
sg67
I12
sg68
S'in13'
p107
sg69
Nsg70
I65540
sg71
I200
sg48
I86380024
sa(dp108
g54
(lp109
sg67
I13
sg68
S'in14'
p110
sg69
Nsg70
I65540
sg71
I200
sg48
I86380328
sa(dp111
g54
(lp112
sg67
I14
sg68
S'in15'
p113
sg69
Nsg70
I65540
sg71
I200
sg48
I86417640
sa(dp114
g54
(lp115
sg67
I15
sg68
S'in16'
p116
sg69
Nsg70
I65540
sg71
I200
sg48
I86417944
sa(dp117
g54
(lp118
sg67
I0
sg68
S'out1'
p119
sg69
Nsg70
I65541
sg71
Nsg48
I86376528
sa(dp120
g54
(lp121
sg67
I1
sg68
S'out2'
p122
sg69
Nsg70
I65541
sg71
Nsg48
I86376832
sa(dp123
g54
(lp124
sg67
I2
sg68
S'out3'
p125
sg69
Nsg70
I65541
sg71
Nsg48
I86377136
sa(dp126
g54
(lp127
sg67
I3
sg68
S'out4'
p128
sg69
Nsg70
I65541
sg71
Nsg48
I86377440
sa(dp129
g54
(lp130
sg67
I4
sg68
S'out5'
p131
sg69
Nsg70
I65541
sg71
Nsg48
I86377744
sa(dp132
g54
(lp133
sg67
I5
sg68
S'out6'
p134
sg69
Nsg70
I65541
sg71
Nsg48
I86378048
sa(dp135
g54
(lp136
sg67
I6
sg68
S'out7'
p137
sg69
Nsg70
I65541
sg71
Nsg48
I86378352
sa(dp138
g54
(lp139
sg67
I7
sg68
S'out8'
p140
sg69
Nsg70
I65541
sg71
Nsg48
I86378656
sa(dp141
g54
(lp142
sg67
I8
sg68
S'out9'
p143
sg69
Nsg70
I65541
sg71
Nsg48
I86378960
sa(dp144
g54
(lp145
sg67
I9
sg68
S'out10'
p146
sg69
Nsg70
I65541
sg71
Nsg48
I86379264
sa(dp147
g54
(lp148
sg67
I10
sg68
S'out11'
p149
sg69
Nsg70
I65541
sg71
Nsg48
I86379568
sa(dp150
g54
(lp151
sg67
I11
sg68
S'out12'
p152
sg69
Nsg70
I65541
sg71
Nsg48
I86379872
sa(dp153
g54
(lp154
sg67
I12
sg68
S'out13'
p155
sg69
Nsg70
I65541
sg71
Nsg48
I86380176
sa(dp156
g54
(lp157
sg67
I13
sg68
S'out14'
p158
sg69
Nsg70
I65541
sg71
Nsg48
I86417488
sa(dp159
g54
(lp160
sg67
I14
sg68
S'out15'
p161
sg69
Nsg70
I65541
sg71
Nsg48
I86417792
sa(dp162
g54
(lp163
sg67
I15
sg68
S'out16'
p164
sg69
Nsg70
I65541
sg71
Nsg48
I86418096
sasS'walltime'
p165
S'0.000407934188843'
p166
ssg40
S'Display'
p167
sS'nodes_rel_pos'
p168
(dp169
S'82531752'
p170
(lp171
F43.0
aF70.5
asS'83310296'
p172
(lp173
F43.0
aF40.5
assS'layoutWindow'
p174
(dp175
g24
(dp176
S'top'
p177
(dp178
S'layoutType'
p179
S'vbox'
p180
sS'wdgids'
p181
(lp182
I82534184
aI83276768
aI83277680
aI83278592
aI83285264
aI83298312
aI83299984
aI83301040
aI83301800
aI83302712
aI83337904
aI83342912
aI83347920
aI83352928
aI83362176
aI83367184
aI83372192
aI83377200
aI83386448
aI83391456
asg40
g177
sssS'config'
p183
I0
ssS'face_settings'
p184
(dp185
g36
(dp186
g38
(lp187
sg40
g41
ssg42
S'3.50475311279e-05'
p188
sg44
g45
sg46
(lp189
F0.0
aF0.0
asg48
I86418248
sg49
S'0.0'
p190
sg51
(lp191
(dp192
g54
(lp193
sg67
I0
sg68
S'in1'
p194
sg69
Nsg70
I65540
sg71
I200
sg48
I83409664
sa(dp195
g54
(lp196
sg67
I0
sg68
g119
sg69
Nsg70
I65541
sg71
Nsg48
I86376528
sasg165
S'3.50475311279e-05'
p197
ssS'rel_jaw_pos'
p198
(lp199
F0.0
aF110.0
asg48
I83263696
sS'src_settings'
p200
(dp201
g36
(dp202
g38
(lp203
sg40
g41
ssg42
S'0.000419139862061'
p204
sg44
g45
sg46
(lp205
F0.0
aF0.0
asg48
I83405416
sg49
S'0.0'
p206
sg51
(lp207
(dp208
g54
(lp209
sg67
I0
sg68
g194
sg69
Nsg70
I65540
sg71
I200
sg48
I83409664
sa(dp210
g54
(lp211
sg67
I1
sg68
S'in2'
p212
sg69
Nsg70
I65540
sg71
I200
sg48
I83409968
sa(dp213
g54
(lp214
sg67
I2
sg68
S'in3'
p215
sg69
Nsg70
I65540
sg71
I200
sg48
I83410272
sa(dp216
g54
(lp217
sg67
I3
sg68
S'in4'
p218
sg69
Nsg70
I65540
sg71
I200
sg48
I83410576
sa(dp219
g54
(lp220
sg67
I4
sg68
S'in5'
p221
sg69
Nsg70
I65540
sg71
I200
sg48
I83435600
sa(dp222
g54
(lp223
sg67
I5
sg68
S'in6'
p224
sg69
Nsg70
I65540
sg71
I200
sg48
I83435904
sa(dp225
g54
(lp226
sg67
I6
sg68
S'in7'
p227
sg69
Nsg70
I65540
sg71
I200
sg48
I83436208
sa(dp228
g54
(lp229
sg67
I7
sg68
S'in8'
p230
sg69
Nsg70
I65540
sg71
I200
sg48
I83436512
sa(dp231
g54
(lp232
sg67
I8
sg68
S'in9'
p233
sg69
Nsg70
I65540
sg71
I200
sg48
I83436816
sa(dp234
g54
(lp235
sg67
I9
sg68
S'in10'
p236
sg69
Nsg70
I65540
sg71
I200
sg48
I83437120
sa(dp237
g54
(lp238
sg67
I10
sg68
S'in11'
p239
sg69
Nsg70
I65540
sg71
I200
sg48
I83437424
sa(dp240
g54
(lp241
sg67
I11
sg68
S'in12'
p242
sg69
Nsg70
I65540
sg71
I200
sg48
I83437728
sa(dp243
g54
(lp244
sg67
I12
sg68
S'in13'
p245
sg69
Nsg70
I65540
sg71
I200
sg48
I83438032
sa(dp246
g54
(lp247
sg67
I13
sg68
S'in14'
p248
sg69
Nsg70
I65540
sg71
I200
sg48
I83438336
sa(dp249
g54
(lp250
sg67
I14
sg68
S'in15'
p251
sg69
Nsg70
I65540
sg71
I200
sg48
I83438640
sa(dp252
g54
(lp253
sg67
I15
sg68
S'in16'
p254
sg69
Nsg70
I65540
sg71
I200
sg48
I83438944
sa(dp255
g54
(lp256
(dp257
g57
(dp258
g59
S'in'
p259
sg61
I0
sg62
I83397984
sg63
I83310296
ssg64
(dp260
g59
S'out1'
p261
sg61
I0
sg62
I83409816
sg63
I83405416
ssasg67
I0
sg68
g261
sg69
Nsg70
I65541
sg71
Nsg48
I83409816
sa(dp262
g54
(lp263
sg67
I1
sg68
S'out2'
p264
sg69
Nsg70
I65541
sg71
Nsg48
I83410120
sa(dp265
g54
(lp266
sg67
I2
sg68
S'out3'
p267
sg69
Nsg70
I65541
sg71
Nsg48
I83410424
sa(dp268
g54
(lp269
sg67
I3
sg68
S'out4'
p270
sg69
Nsg70
I65541
sg71
Nsg48
I83410728
sa(dp271
g54
(lp272
sg67
I4
sg68
S'out5'
p273
sg69
Nsg70
I65541
sg71
Nsg48
I83435752
sa(dp274
g54
(lp275
sg67
I5
sg68
S'out6'
p276
sg69
Nsg70
I65541
sg71
Nsg48
I83436056
sa(dp277
g54
(lp278
sg67
I6
sg68
S'out7'
p279
sg69
Nsg70
I65541
sg71
Nsg48
I83436360
sa(dp280
g54
(lp281
sg67
I7
sg68
S'out8'
p282
sg69
Nsg70
I65541
sg71
Nsg48
I83436664
sa(dp283
g54
(lp284
sg67
I8
sg68
S'out9'
p285
sg69
Nsg70
I65541
sg71
Nsg48
I83436968
sa(dp286
g54
(lp287
sg67
I9
sg68
S'out10'
p288
sg69
Nsg70
I65541
sg71
Nsg48
I83437272
sa(dp289
g54
(lp290
sg67
I10
sg68
S'out11'
p291
sg69
Nsg70
I65541
sg71
Nsg48
I83437576
sa(dp292
g54
(lp293
sg67
I11
sg68
S'out12'
p294
sg69
Nsg70
I65541
sg71
Nsg48
I83437880
sa(dp295
g54
(lp296
sg67
I12
sg68
S'out13'
p297
sg69
Nsg70
I65541
sg71
Nsg48
I83438184
sa(dp298
g54
(lp299
sg67
I13
sg68
S'out14'
p300
sg69
Nsg70
I65541
sg71
Nsg48
I83438488
sa(dp301
g54
(lp302
sg67
I14
sg68
S'out15'
p303
sg69
Nsg70
I65541
sg71
Nsg48
I83438792
sa(dp304
g54
(lp305
sg67
I15
sg68
S'out16'
p306
sg69
Nsg70
I65541
sg71
Nsg48
I83439096
sasg165
S'0.000419139862061'
p307
ssasg28
(lp308
(dp309
g36
(dp310
g38
(lp311
sg40
g41
ssg42
S'0.000407934188843'
p312
sg44
g45
sg46
(lp313
F0.0
aF0.0
asg51
(lp314
(dp315
g68
g60
sg67
I0
sg54
(lp316
(dp317
g57
(dp318
g59
g60
sg62
I86359848
sg61
I0
sg63
I83439248
ssg64
(dp319
g59
g66
sg62
I83303776
sg61
I0
sg63
I82531752
ssasg69
Nsg70
I65540
sg71
I200
sg48
I86359848
sa(dp320
g68
g74
sg67
I1
sg54
(lp321
sg69
Nsg70
I65540
sg71
I200
sg48
I86376680
sa(dp322
g68
g77
sg67
I2
sg54
(lp323
sg69
Nsg70
I65540
sg71
I200
sg48
I86376984
sa(dp324
g68
g80
sg67
I3
sg54
(lp325
sg69
Nsg70
I65540
sg71
I200
sg48
I86377288
sa(dp326
g68
g83
sg67
I4
sg54
(lp327
sg69
Nsg70
I65540
sg71
I200
sg48
I86377592
sa(dp328
g68
g86
sg67
I5
sg54
(lp329
sg69
Nsg70
I65540
sg71
I200
sg48
I86377896
sa(dp330
g68
g89
sg67
I6
sg54
(lp331
sg69
Nsg70
I65540
sg71
I200
sg48
I86378200
sa(dp332
g68
g92
sg67
I7
sg54
(lp333
sg69
Nsg70
I65540
sg71
I200
sg48
I86378504
sa(dp334
g68
g95
sg67
I8
sg54
(lp335
sg69
Nsg70
I65540
sg71
I200
sg48
I86378808
sa(dp336
g68
g98
sg67
I9
sg54
(lp337
sg69
Nsg70
I65540
sg71
I200
sg48
I86379112
sa(dp338
g68
g101
sg67
I10
sg54
(lp339
sg69
Nsg70
I65540
sg71
I200
sg48
I86379416
sa(dp340
g68
g104
sg67
I11
sg54
(lp341
sg69
Nsg70
I65540
sg71
I200
sg48
I86379720
sa(dp342
g68
g107
sg67
I12
sg54
(lp343
sg69
Nsg70
I65540
sg71
I200
sg48
I86380024
sa(dp344
g68
g110
sg67
I13
sg54
(lp345
sg69
Nsg70
I65540
sg71
I200
sg48
I86380328
sa(dp346
g68
g113
sg67
I14
sg54
(lp347
sg69
Nsg70
I65540
sg71
I200
sg48
I86417640
sa(dp348
g68
g116
sg67
I15
sg54
(lp349
sg69
Nsg70
I65540
sg71
I200
sg48
I86417944
sa(dp350
g68
g119
sg67
I0
sg54
(lp351
sg69
Nsg70
I65541
sg71
Nsg48
I86376528
sa(dp352
g68
g122
sg67
I1
sg54
(lp353
sg69
Nsg70
I65541
sg71
Nsg48
I86376832
sa(dp354
g68
g125
sg67
I2
sg54
(lp355
sg69
Nsg70
I65541
sg71
Nsg48
I86377136
sa(dp356
g68
g128
sg67
I3
sg54
(lp357
sg69
Nsg70
I65541
sg71
Nsg48
I86377440
sa(dp358
g68
g131
sg67
I4
sg54
(lp359
sg69
Nsg70
I65541
sg71
Nsg48
I86377744
sa(dp360
g68
g134
sg67
I5
sg54
(lp361
sg69
Nsg70
I65541
sg71
Nsg48
I86378048
sa(dp362
g68
g137
sg67
I6
sg54
(lp363
sg69
Nsg70
I65541
sg71
Nsg48
I86378352
sa(dp364
g68
g140
sg67
I7
sg54
(lp365
sg69
Nsg70
I65541
sg71
Nsg48
I86378656
sa(dp366
g68
g143
sg67
I8
sg54
(lp367
sg69
Nsg70
I65541
sg71
Nsg48
I86378960
sa(dp368
g68
g146
sg67
I9
sg54
(lp369
sg69
Nsg70
I65541
sg71
Nsg48
I86379264
sa(dp370
g68
g149
sg67
I10
sg54
(lp371
sg69
Nsg70
I65541
sg71
Nsg48
I86379568
sa(dp372
g68
g152
sg67
I11
sg54
(lp373
sg69
Nsg70
I65541
sg71
Nsg48
I86379872
sa(dp374
g68
g155
sg67
I12
sg54
(lp375
sg69
Nsg70
I65541
sg71
Nsg48
I86380176
sa(dp376
g68
g158
sg67
I13
sg54
(lp377
sg69
Nsg70
I65541
sg71
Nsg48
I86417488
sa(dp378
g68
g161
sg67
I14
sg54
(lp379
sg69
Nsg70
I65541
sg71
Nsg48
I86417792
sa(dp380
g68
g164
sg67
I15
sg54
(lp381
sg69
Nsg70
I65541
sg71
Nsg48
I86418096
sasg49
S'0.0'
p382
sg48
I83439248
sg165
S'0.000407934188843'
p383
sa(dp384
g36
(dp385
g38
(lp386
(dp387
S'type'
p388
S"<class 'gpi.widgets.ExclusivePushButtons'>"
p389
sg44
S'Complex Display'
p390
sS'kwargs'
p391
(dp392
S'outport'
p393
I00
sS'quietval'
p394
NsS'val'
p395
I4
sS'collapsed'
p396
I00
sS'inport'
p397
I00
sS'visible'
p398
I01
sS'id'
p399
I82534184
ssa(dp400
g388
S"<class 'gpi.widgets.SpinBox'>"
p401
sg44
S'Edge Pixels'
p402
sg391
(dp403
S'outport'
p404
I00
sS'quietval'
p405
Nsg395
I0
sS'min'
p406
I0
sS'max'
p407
I2147483647
sS'collapsed'
p408
I00
sS'wrapping'
p409
I00
sS'immediate'
p410
I00
sS'label'
p411
V
p412
sS'singlestep'
p413
I1
sS'visible'
p414
I01
sS'inport'
p415
I00
sS'id'
p416
I83276768
ssa(dp417
g388
S"<class 'gpi.widgets.SpinBox'>"
p418
sg44
S'Black Pixels'
p419
sg391
(dp420
S'outport'
p421
I00
sS'quietval'
p422
Nsg395
I0
sS'min'
p423
I0
sS'max'
p424
I2147483647
sS'collapsed'
p425
I00
sS'wrapping'
p426
I00
sS'immediate'
p427
I00
sS'label'
p428
g412
sS'singlestep'
p429
I1
sS'visible'
p430
I01
sS'inport'
p431
I00
sS'id'
p432
I83277680
ssa(dp433
g388
S"<class 'gpi.widgets.DisplayBox'>"
p434
sg44
S'Viewport:'
p435
sg391
(dp436
S'outport'
p437
I00
sS'scale'
p438
F1.0
sS'quietval'
p439
Nsg395
NsS'collapsed'
p440
I01
sS'interp'
p441
I00
sS'inport'
p442
I00
sS'visible'
p443
I01
sS'noscroll'
p444
I01
sS'points'
p445
NsS'line'
p446
NsS'id'
p447
I83278592
ssa(dp448
g388
S"<class '/opt/gpi/lib/core/display/GPI/ImageDisplay_GPI.WindowLevel'>"
p449
sg44
S'L W F C:'
p450
sg391
(dp451
S'outport'
p452
I00
sS'quietval'
p453
Nsg395
(dp454
S'window'
p455
I100
sS'floor'
p456
I0
sS'ceiling'
p457
I100
sS'level'
p458
I50
ssS'min'
p459
I0
sS'max'
p460
I100
sS'collapsed'
p461
I01
sS'inport'
p462
I00
sS'visible'
p463
I01
sS'id'
p464
I83285264
ssa(dp465
g388
S"<class 'gpi.widgets.ExclusivePushButtons'>"
p466
sg44
S'Scalar Display'
p467
sg391
(dp468
S'outport'
p469
I00
sS'quietval'
p470
Nsg395
I0
sS'collapsed'
p471
I00
sS'inport'
p472
I00
sS'visible'
p473
I01
sS'id'
p474
I83298312
ssa(dp475
g388
S"<class 'gpi.widgets.DoubleSpinBox'>"
p476
sg44
S'Gamma'
p477
sg391
(dp478
S'outport'
p479
I00
sS'quietval'
p480
Nsg395
F1.0
sS'min'
p481
F0.1
sS'max'
p482
F10.0
sS'collapsed'
p483
I00
sS'wrapping'
p484
I00
sS'immediate'
p485
I00
sS'label'
p486
g412
sS'singlestep'
p487
F0.05
sS'visible'
p488
I01
sS'inport'
p489
I00
sS'decimals'
p490
I3
sS'id'
p491
I83299072
ssa(dp492
g388
S"<class 'gpi.widgets.ExclusivePushButtons'>"
p493
sg44
S'Zero Ref'
p494
sg391
(dp495
S'outport'
p496
I00
sS'quietval'
p497
Nsg395
I0
sS'collapsed'
p498
I00
sS'inport'
p499
I00
sS'visible'
p500
I01
sS'id'
p501
I83299984
ssa(dp502
g388
S"<class 'gpi.widgets.PushButton'>"
p503
sg44
S'Fix Range'
p504
sg391
(dp505
S'outport'
p506
I00
sS'quietval'
p507
Nsg395
I00
sS'collapsed'
p508
I00
sS'inport'
p509
I00
sS'visible'
p510
I01
sS'toggle'
p511
I01
sS'button_title'
p512
VAuto-Range On
p513
sS'id'
p514
I83301040
ssa(dp515
g388
S"<class 'gpi.widgets.DoubleSpinBox'>"
p516
sg44
S'Range Min'
p517
sg391
(dp518
S'outport'
p519
I00
sS'quietval'
p520
Nsg395
F0.0
sS'min'
p521
F-1.7976931348623157e+308
sS'max'
p522
F1.7976931348623157e+308
sS'collapsed'
p523
I00
sS'wrapping'
p524
I00
sS'immediate'
p525
I00
sS'label'
p526
g412
sS'singlestep'
p527
F1.0
sS'visible'
p528
I01
sS'inport'
p529
I00
sS'decimals'
p530
I2
sS'id'
p531
I83301800
ssa(dp532
g388
S"<class 'gpi.widgets.DoubleSpinBox'>"
p533
sg44
S'Range Max'
p534
sg391
(dp535
S'outport'
p536
I00
sS'quietval'
p537
Nsg395
F0.0
sS'min'
p538
F-1.7976931348623157e+308
sS'max'
p539
F1.7976931348623157e+308
sS'collapsed'
p540
I00
sS'wrapping'
p541
I00
sS'immediate'
p542
I00
sS'label'
p543
g412
sS'singlestep'
p544
F1.0
sS'visible'
p545
I01
sS'inport'
p546
I00
sS'decimals'
p547
I2
sS'id'
p548
I83302712
ssasg40
g41
ssg42
S'0.0'
p549
sg44
S'ImageDisplay'
p550
sg46
(lp551
F0.0
aF0.0
asg51
(lp552
(dp553
g68
g259
sg67
I0
sg54
(lp554
(dp555
g57
(dp556
g59
g259
sg62
I83303624
sg61
I0
sg63
I82531752
ssg64
(dp557
g59
g66
sg62
I83398136
sg61
I0
sg63
I83310296
ssasg69
Nsg70
I65540
sg71
I100
sg48
I83303624
sa(dp558
g68
g66
sg67
I0
sg54
(lp559
(dp560
g57
(dp561
g59
g60
sg62
I86359848
sg61
I0
sg63
I83439248
ssg64
(dp562
g59
g66
sg62
I83303776
sg61
I0
sg63
I82531752
ssasg69
Nsg70
I65541
sg71
Nsg48
I83303776
sasg49
S'0.0'
p563
sS'key'
p564
S'core.display.ImageDisplay'
p565
sg48
I82531752
sa(dp566
g36
(dp567
g38
(lp568
sg40
g41
ssg42
S'3.50475311279e-05'
p569
sg44
g45
sg46
(lp570
F0.0
aF0.0
asg51
(lp571
(dp572
g68
g194
sg67
I0
sg54
(lp573
sg69
Nsg70
I65540
sg71
I200
sg48
I83409664
sa(dp574
g68
g119
sg67
I0
sg54
(lp575
sg69
Nsg70
I65541
sg71
Nsg48
I86376528
sasg49
S'0.0'
p576
sg48
I86418248
sg165
S'3.50475311279e-05'
p577
sa(dp578
g36
(dp579
g38
(lp580
(dp581
g388
S"<class 'gpi.widgets.TextBox'>"
p582
sg44
S'I/O Info:'
p583
sg391
(dp584
S'outport'
p585
I00
sS'quietval'
p586
Nsg395
g41
sS'collapsed'
p587
I00
sS'inport'
p588
I00
sS'visible'
p589
I01
sS'wordwrap'
p590
I00
sS'id'
p591
I83337448
ssa(dp592
g388
S"<class '/opt/gpi/lib/core/shapers/GPI/Reduce_GPI.ReduceSliders'>"
p593
sg44
S'Dimension[-1]'
p594
sg391
(dp595
S'outport'
p596
I00
sS'quietval'
p597
Nsg395
(dp598
S'width'
p599
I100
sg457
I100
sS'selection'
p600
I3
sS'center'
p601
I51
sg456
I1
ssS'min'
p602
I1
sS'max'
p603
I100
sS'collapsed'
p604
I00
sS'inport'
p605
I00
sS'visible'
p606
I01
sS'id'
p607
I83337904
ssa(dp608
g388
S"<class '/opt/gpi/lib/core/shapers/GPI/Reduce_GPI.ReduceSliders'>"
p609
sg44
S'Dimension[-2]'
p610
sg391
(dp611
S'outport'
p612
I00
sS'quietval'
p613
Nsg395
(dp614
g599
I100
sg457
I100
sg600
I3
sg601
I51
sg456
I1
ssS'min'
p615
I1
sS'max'
p616
I100
sS'collapsed'
p617
I00
sS'inport'
p618
I00
sS'visible'
p619
I01
sS'id'
p620
I83342912
ssa(dp621
g388
S"<class '/opt/gpi/lib/core/shapers/GPI/Reduce_GPI.ReduceSliders'>"
p622
sg44
S'Dimension[-3]'
p623
sg391
(dp624
S'outport'
p625
I00
sS'quietval'
p626
Nsg395
(dp627
g599
I1
sg457
I1
sg600
I2
sg601
I1
sg456
I1
ssS'min'
p628
I1
sS'max'
p629
I100
sS'collapsed'
p630
I00
sS'inport'
p631
I00
sS'visible'
p632
I01
sS'id'
p633
I83347920
ssa(dp634
g388
S"<class '/opt/gpi/lib/core/shapers/GPI/Reduce_GPI.ReduceSliders'>"
p635
sg44
S'Dimension[-4]'
p636
sg391
(dp637
S'outport'
p638
I00
sS'quietval'
p639
Nsg395
(dp640
g599
I1
sg457
I1
sg600
I2
sg601
I1
sg456
I1
ssS'min'
p641
I1
sS'max'
p642
I100
sS'collapsed'
p643
I00
sS'inport'
p644
I00
sS'visible'
p645
I01
sS'id'
p646
I83352928
ssa(dp647
g388
S"<class '/opt/gpi/lib/core/shapers/GPI/Reduce_GPI.ReduceSliders'>"
p648
sg44
S'Dimension[-5]'
p649
sg391
(dp650
S'outport'
p651
I00
sS'quietval'
p652
Nsg395
(dp653
g599
I1
sg457
I1
sg600
I2
sg601
I1
sg456
I1
ssS'min'
p654
I1
sS'max'
p655
I100
sS'collapsed'
p656
I00
sS'inport'
p657
I00
sS'visible'
p658
I01
sS'id'
p659
I83362176
ssa(dp660
g388
S"<class '/opt/gpi/lib/core/shapers/GPI/Reduce_GPI.ReduceSliders'>"
p661
sg44
S'Dimension[-6]'
p662
sg391
(dp663
S'outport'
p664
I00
sS'quietval'
p665
Nsg395
(dp666
g599
I1
sg457
I1
sg600
I2
sg601
I1
sg456
I1
ssS'min'
p667
I1
sS'max'
p668
I100
sS'collapsed'
p669
I00
sS'inport'
p670
I00
sS'visible'
p671
I01
sS'id'
p672
I83367184
ssa(dp673
g388
S"<class '/opt/gpi/lib/core/shapers/GPI/Reduce_GPI.ReduceSliders'>"
p674
sg44
S'Dimension[-7]'
p675
sg391
(dp676
S'outport'
p677
I00
sS'quietval'
p678
Nsg395
(dp679
g599
I1
sg457
I1
sg600
I2
sg601
I1
sg456
I1
ssS'min'
p680
I1
sS'max'
p681
I100
sS'collapsed'
p682
I00
sS'inport'
p683
I00
sS'visible'
p684
I01
sS'id'
p685
I83372192
ssa(dp686
g388
S"<class '/opt/gpi/lib/core/shapers/GPI/Reduce_GPI.ReduceSliders'>"
p687
sg44
S'Dimension[-8]'
p688
sg391
(dp689
S'outport'
p690
I00
sS'quietval'
p691
Nsg395
(dp692
g599
I1
sg457
I1
sg600
I2
sg601
I1
sg456
I1
ssS'min'
p693
I1
sS'max'
p694
I100
sS'collapsed'
p695
I00
sS'inport'
p696
I00
sS'visible'
p697
I01
sS'id'
p698
I83377200
ssa(dp699
g388
S"<class '/opt/gpi/lib/core/shapers/GPI/Reduce_GPI.ReduceSliders'>"
p700
sg44
S'Dimension[-9]'
p701
sg391
(dp702
S'outport'
p703
I00
sS'quietval'
p704
Nsg395
(dp705
g599
I1
sg457
I1
sg600
I2
sg601
I1
sg456
I1
ssS'min'
p706
I1
sS'max'
p707
I100
sS'collapsed'
p708
I00
sS'inport'
p709
I00
sS'visible'
p710
I01
sS'id'
p711
I83386448
ssa(dp712
g388
S"<class '/opt/gpi/lib/core/shapers/GPI/Reduce_GPI.ReduceSliders'>"
p713
sg44
S'Dimension[-10]'
p714
sg391
(dp715
S'outport'
p716
I00
sS'quietval'
p717
Nsg395
(dp718
g599
I1
sg457
I1
sg600
I2
sg601
I1
sg456
I1
ssS'min'
p719
I1
sS'max'
p720
I100
sS'collapsed'
p721
I00
sS'inport'
p722
I00
sS'visible'
p723
I01
sS'id'
p724
I83391456
ssa(dp725
g388
S"<class 'gpi.widgets.PushButton'>"
p726
sg44
S'Mask'
p727
sg391
(dp728
S'outport'
p729
I00
sS'quietval'
p730
Nsg395
I00
sS'collapsed'
p731
I00
sS'inport'
p732
I00
sS'visible'
p733
I01
sS'toggle'
p734
I01
sS'button_title'
p735
g412
sS'id'
p736
I83396464
ssa(dp737
g388
S"<class 'gpi.widgets.PushButton'>"
p738
sg44
S'Compute'
p739
sg391
(dp740
S'outport'
p741
I00
sS'quietval'
p742
Nsg395
I01
sS'collapsed'
p743
I00
sS'inport'
p744
I00
sS'visible'
p745
I01
sS'toggle'
p746
I01
sS'button_title'
p747
g412
sS'id'
p748
I83397224
ssasg40
g41
ssg42
S'0.0'
p749
sg44
S'Reduce'
p750
sg46
(lp751
F0.0
aF0.0
asg51
(lp752
(dp753
g68
g259
sg67
I0
sg54
(lp754
(dp755
g57
(dp756
g59
g259
sg62
I83397984
sg61
I0
sg63
I83310296
ssg64
(dp757
g59
g261
sg62
I83409816
sg61
I0
sg63
I83405416
ssasg69
Nsg70
I65540
sg71
I100
sg48
I83397984
sa(dp758
g68
g66
sg67
I0
sg54
(lp759
(dp760
g57
(dp761
g59
g259
sg62
I83303624
sg61
I0
sg63
I82531752
ssg64
(dp762
g59
g66
sg62
I83398136
sg61
I0
sg63
I83310296
ssasg69
Nsg70
I65541
sg71
Nsg48
I83398136
sa(dp763
g68
S'mask'
p764
sg67
I1
sg54
(lp765
sg69
Nsg70
I65541
sg71
Nsg48
I83398288
sasg49
S'0.0'
p766
sg564
S'core.shapers.Reduce'
p767
sg48
I83310296
sa(dp768
g36
(dp769
g38
(lp770
sg40
g41
ssg42
S'0.000419139862061'
p771
sg44
g45
sg46
(lp772
F0.0
aF0.0
asg51
(lp773
(dp774
g68
g194
sg67
I0
sg54
(lp775
sg69
Nsg70
I65540
sg71
I200
sg48
I83409664
sa(dp776
g68
g212
sg67
I1
sg54
(lp777
sg69
Nsg70
I65540
sg71
I200
sg48
I83409968
sa(dp778
g68
g215
sg67
I2
sg54
(lp779
sg69
Nsg70
I65540
sg71
I200
sg48
I83410272
sa(dp780
g68
g218
sg67
I3
sg54
(lp781
sg69
Nsg70
I65540
sg71
I200
sg48
I83410576
sa(dp782
g68
g221
sg67
I4
sg54
(lp783
sg69
Nsg70
I65540
sg71
I200
sg48
I83435600
sa(dp784
g68
g224
sg67
I5
sg54
(lp785
sg69
Nsg70
I65540
sg71
I200
sg48
I83435904
sa(dp786
g68
g227
sg67
I6
sg54
(lp787
sg69
Nsg70
I65540
sg71
I200
sg48
I83436208
sa(dp788
g68
g230
sg67
I7
sg54
(lp789
sg69
Nsg70
I65540
sg71
I200
sg48
I83436512
sa(dp790
g68
g233
sg67
I8
sg54
(lp791
sg69
Nsg70
I65540
sg71
I200
sg48
I83436816
sa(dp792
g68
g236
sg67
I9
sg54
(lp793
sg69
Nsg70
I65540
sg71
I200
sg48
I83437120
sa(dp794
g68
g239
sg67
I10
sg54
(lp795
sg69
Nsg70
I65540
sg71
I200
sg48
I83437424
sa(dp796
g68
g242
sg67
I11
sg54
(lp797
sg69
Nsg70
I65540
sg71
I200
sg48
I83437728
sa(dp798
g68
g245
sg67
I12
sg54
(lp799
sg69
Nsg70
I65540
sg71
I200
sg48
I83438032
sa(dp800
g68
g248
sg67
I13
sg54
(lp801
sg69
Nsg70
I65540
sg71
I200
sg48
I83438336
sa(dp802
g68
g251
sg67
I14
sg54
(lp803
sg69
Nsg70
I65540
sg71
I200
sg48
I83438640
sa(dp804
g68
g254
sg67
I15
sg54
(lp805
sg69
Nsg70
I65540
sg71
I200
sg48
I83438944
sa(dp806
g68
g261
sg67
I0
sg54
(lp807
(dp808
g57
(dp809
g59
g259
sg62
I83397984
sg61
I0
sg63
I83310296
ssg64
(dp810
g59
g261
sg62
I83409816
sg61
I0
sg63
I83405416
ssasg69
Nsg70
I65541
sg71
Nsg48
I83409816
sa(dp811
g68
g264
sg67
I1
sg54
(lp812
sg69
Nsg70
I65541
sg71
Nsg48
I83410120
sa(dp813
g68
g267
sg67
I2
sg54
(lp814
sg69
Nsg70
I65541
sg71
Nsg48
I83410424
sa(dp815
g68
g270
sg67
I3
sg54
(lp816
sg69
Nsg70
I65541
sg71
Nsg48
I83410728
sa(dp817
g68
g273
sg67
I4
sg54
(lp818
sg69
Nsg70
I65541
sg71
Nsg48
I83435752
sa(dp819
g68
g276
sg67
I5
sg54
(lp820
sg69
Nsg70
I65541
sg71
Nsg48
I83436056
sa(dp821
g68
g279
sg67
I6
sg54
(lp822
sg69
Nsg70
I65541
sg71
Nsg48
I83436360
sa(dp823
g68
g282
sg67
I7
sg54
(lp824
sg69
Nsg70
I65541
sg71
Nsg48
I83436664
sa(dp825
g68
g285
sg67
I8
sg54
(lp826
sg69
Nsg70
I65541
sg71
Nsg48
I83436968
sa(dp827
g68
g288
sg67
I9
sg54
(lp828
sg69
Nsg70
I65541
sg71
Nsg48
I83437272
sa(dp829
g68
g291
sg67
I10
sg54
(lp830
sg69
Nsg70
I65541
sg71
Nsg48
I83437576
sa(dp831
g68
g294
sg67
I11
sg54
(lp832
sg69
Nsg70
I65541
sg71
Nsg48
I83437880
sa(dp833
g68
g297
sg67
I12
sg54
(lp834
sg69
Nsg70
I65541
sg71
Nsg48
I83438184
sa(dp835
g68
g300
sg67
I13
sg54
(lp836
sg69
Nsg70
I65541
sg71
Nsg48
I83438488
sa(dp837
g68
g303
sg67
I14
sg54
(lp838
sg69
Nsg70
I65541
sg71
Nsg48
I83438792
sa(dp839
g68
g306
sg67
I15
sg54
(lp840
sg69
Nsg70
I65541
sg71
Nsg48
I83439096
sasg49
S'0.0'
p841
sg48
I83405416
sg165
S'0.000419139862061'
p842
sassS'WALLTIME'
p843
S'0.0206761360168'
p844
s.